; Function Attrs: mustprogress uwtable
define void @_ZNK4cvc56parser22SygusConstraintCommand8toStreamERSo(ptr noundef nonnull align 8 dereferenceable(41) %0, ptr noundef nonnull align 8 dereferenceable(8) %1) unnamed_addr #3 align 2 personality ptr @__gxx_personality_v0 {
  %3 = alloca %"class.cvc5::internal::NodeTemplate", align 8
  %4 = alloca %"class.cvc5::internal::NodeTemplate", align 8
  %5 = getelementptr inbounds nuw i8, ptr %0, i64 40
  %6 = load i8, ptr %5, align 8, !tbaa !159, !range !161, !noundef !162
  %7 = trunc nuw i8 %6 to i1
  %8 = tail call noundef ptr @_ZN4cvc58internal7Printer10getPrinterERSo(ptr noundef nonnull align 8 dereferenceable(8) %1)
  %9 = getelementptr inbounds nuw i8, ptr %0, i64 16
  br i1 %7, label %10, label %46

10:                                               ; preds = %2
  tail call void @llvm.experimental.noalias.scope.decl(metadata !163)
  %11 = tail call noundef nonnull align 8 dereferenceable(8) ptr @_ZNK4cvc54Term7getNodeEv(ptr noundef nonnull align 8 dereferenceable(24) %9), !noalias !163
  %12 = load ptr, ptr %11, align 8, !tbaa !64, !noalias !163
  store ptr %12, ptr %3, align 8, !tbaa !64, !alias.scope !163
  %13 = load i64, ptr %12, align 8, !noalias !163
  %14 = lshr i64 %13, 40
  %15 = trunc nuw nsw i64 %14 to i32
  %16 = and i32 %15, 1048575
  %17 = icmp samesign ult i32 %16, 1048574
  br i1 %17, label %18, label %23, !prof !67

18:                                               ; preds = %10
  %19 = add i64 %13, 1099511627776
  %20 = and i64 %19, 1152920405095219200
  %21 = and i64 %13, -1152920405095219201
  %22 = or disjoint i64 %20, %21
  store i64 %22, ptr %12, align 8, !noalias !163
  br label %_ZN4cvc56parser3Cmd10termToNodeERKNS_4TermE.exit

23:                                               ; preds = %10
  %24 = icmp eq i32 %16, 1048574
  br i1 %24, label %25, label %_ZN4cvc56parser3Cmd10termToNodeERKNS_4TermE.exit, !prof !32

25:                                               ; preds = %23
  %26 = or i64 %13, 1152920405095219200
  store i64 %26, ptr %12, align 8, !noalias !163
  tail call void @_ZN4cvc58internal4expr9NodeValue20markRefCountMaxedOutEv(ptr noundef nonnull align 8 dereferenceable(24) %12), !noalias !163
  br label %_ZN4cvc56parser3Cmd10termToNodeERKNS_4TermE.exit

_ZN4cvc56parser3Cmd10termToNodeERKNS_4TermE.exit: ; preds = %18, %23, %25
  %27 = load ptr, ptr %8, align 8, !tbaa !6
  %28 = getelementptr inbounds nuw i8, ptr %27, i64 256
  %29 = load ptr, ptr %28, align 8
  invoke void %29(ptr noundef nonnull align 8 dereferenceable(8) %8, ptr noundef nonnull align 8 dereferenceable(8) %1, ptr noundef nonnull %3)
          to label %30 unwind label %44

30:                                               ; preds = %_ZN4cvc56parser3Cmd10termToNodeERKNS_4TermE.exit
  %31 = load ptr, ptr %3, align 8, !tbaa !64
  %32 = load i64, ptr %31, align 8
  %33 = and i64 %32, 1152920405095219200
  %.not.i.i = icmp eq i64 %33, 1152920405095219200
  br i1 %.not.i.i, label %_ZN4cvc58internal12NodeTemplateILb1EED2Ev.exit, label %34, !prof !32

34:                                               ; preds = %30
  %35 = add i64 %32, 1152920405095219200
  %36 = and i64 %35, 1152920405095219200
  %37 = and i64 %32, -1152920405095219201
  %38 = or disjoint i64 %36, %37
  store i64 %38, ptr %31, align 8
  %39 = icmp eq i64 %36, 0
  br i1 %39, label %40, label %_ZN4cvc58internal12NodeTemplateILb1EED2Ev.exit, !prof !32

40:                                               ; preds = %34
  invoke void @_ZN4cvc58internal4expr9NodeValue15markForDeletionEv(ptr noundef nonnull align 8 dereferenceable(24) %31)
          to label %_ZN4cvc58internal12NodeTemplateILb1EED2Ev.exit unwind label %41

41:                                               ; preds = %40
  %42 = landingpad { ptr, i32 }
          catch ptr null
  %43 = extractvalue { ptr, i32 } %42, 0
  call void @__clang_call_terminate(ptr %43) #35
  unreachable

44:                                               ; preds = %_ZN4cvc56parser3Cmd10termToNodeERKNS_4TermE.exit
  %45 = landingpad { ptr, i32 }
          cleanup
  br label %82

46:                                               ; preds = %2
  tail call void @llvm.experimental.noalias.scope.decl(metadata !166)
  %47 = tail call noundef nonnull align 8 dereferenceable(8) ptr @_ZNK4cvc54Term7getNodeEv(ptr noundef nonnull align 8 dereferenceable(24) %9), !noalias !166
  %48 = load ptr, ptr %47, align 8, !tbaa !64, !noalias !166
  store ptr %48, ptr %4, align 8, !tbaa !64, !alias.scope !166
  %49 = load i64, ptr %48, align 8, !noalias !166
  %50 = lshr i64 %49, 40
  %51 = trunc nuw nsw i64 %50 to i32
  %52 = and i32 %51, 1048575
  %53 = icmp samesign ult i32 %52, 1048574
  br i1 %53, label %54, label %59, !prof !67

54:                                               ; preds = %46
  %55 = add i64 %49, 1099511627776
  %56 = and i64 %55, 1152920405095219200
  %57 = and i64 %49, -1152920405095219201
  %58 = or disjoint i64 %56, %57
  store i64 %58, ptr %48, align 8, !noalias !166
  br label %_ZN4cvc56parser3Cmd10termToNodeERKNS_4TermE.exit8

59:                                               ; preds = %46
  %60 = icmp eq i32 %52, 1048574
  br i1 %60, label %61, label %_ZN4cvc56parser3Cmd10termToNodeERKNS_4TermE.exit8, !prof !32

61:                                               ; preds = %59
  %62 = or i64 %49, 1152920405095219200
  store i64 %62, ptr %48, align 8, !noalias !166
  tail call void @_ZN4cvc58internal4expr9NodeValue20markRefCountMaxedOutEv(ptr noundef nonnull align 8 dereferenceable(24) %48), !noalias !166
  br label %_ZN4cvc56parser3Cmd10termToNodeERKNS_4TermE.exit8

_ZN4cvc56parser3Cmd10termToNodeERKNS_4TermE.exit8: ; preds = %54, %59, %61
  %63 = load ptr, ptr %8, align 8, !tbaa !6
  %64 = getelementptr inbounds nuw i8, ptr %63, i64 248
  %65 = load ptr, ptr %64, align 8
  invoke void %65(ptr noundef nonnull align 8 dereferenceable(8) %8, ptr noundef nonnull align 8 dereferenceable(8) %1, ptr noundef nonnull %4)
          to label %66 unwind label %80

66:                                               ; preds = %_ZN4cvc56parser3Cmd10termToNodeERKNS_4TermE.exit8
  %67 = load ptr, ptr %4, align 8, !tbaa !64
  %68 = load i64, ptr %67, align 8
  %69 = and i64 %68, 1152920405095219200
  %.not.i.i9 = icmp eq i64 %69, 1152920405095219200
  br i1 %.not.i.i9, label %_ZN4cvc58internal12NodeTemplateILb1EED2Ev.exit, label %70, !prof !32

70:                                               ; preds = %66
  %71 = add i64 %68, 1152920405095219200
  %72 = and i64 %71, 1152920405095219200
  %73 = and i64 %68, -1152920405095219201
  %74 = or disjoint i64 %72, %73
  store i64 %74, ptr %67, align 8
  %75 = icmp eq i64 %72, 0
  br i1 %75, label %76, label %_ZN4cvc58internal12NodeTemplateILb1EED2Ev.exit, !prof !32

76:                                               ; preds = %70
  invoke void @_ZN4cvc58internal4expr9NodeValue15markForDeletionEv(ptr noundef nonnull align 8 dereferenceable(24) %67)
          to label %_ZN4cvc58internal12NodeTemplateILb1EED2Ev.exit unwind label %77

77:                                               ; preds = %76
  %78 = landingpad { ptr, i32 }
          catch ptr null
  %79 = extractvalue { ptr, i32 } %78, 0
  call void @__clang_call_terminate(ptr %79) #35
  unreachable

80:                                               ; preds = %_ZN4cvc56parser3Cmd10termToNodeERKNS_4TermE.exit8
  %81 = landingpad { ptr, i32 }
          cleanup
  br label %82

_ZN4cvc58internal12NodeTemplateILb1EED2Ev.exit:   ; preds = %76, %70, %66, %40, %34, %30
  ret void

82:                                               ; preds = %80, %44
  %.sink = phi ptr [ %4, %80 ], [ %3, %44 ]
  %.pn = phi { ptr, i32 } [ %81, %80 ], [ %45, %44 ]
  call void @_ZN4cvc58internal12NodeTemplateILb1EED2Ev(ptr noundef nonnull align 8 dereferenceable(8) %.sink) #33
  resume { ptr, i32 } %.pn
}